(lp0
S'http://www.loc.gov/pictures/collection/fsa/item/fsa1997000970/PP/'
p1
aS'http://www.loc.gov/pictures/collection/fsa/item/fsa1997000971/PP/'
p2
aS'http://www.loc.gov/pictures/collection/fsa/item/fsa1997000972/PP/'
p3
aS'http://www.loc.gov/pictures/collection/fsa/item/fsa1997000973/PP/'
p4
aS'http://www.loc.gov/pictures/collection/fsa/item/fsa1997000974/PP/'
p5
aS'http://www.loc.gov/pictures/collection/fsa/item/fsa1997000975/PP/'
p6
aS'http://www.loc.gov/pictures/collection/fsa/item/fsa1997000976/PP/'
p7
aS'http://www.loc.gov/pictures/collection/fsa/item/fsa1997000977/PP/'
p8
aS'http://www.loc.gov/pictures/collection/fsa/item/fsa1997000978/PP/'
p9
aS'http://www.loc.gov/pictures/collection/fsa/item/fsa1997000979/PP/'
p10
aS'http://www.loc.gov/pictures/collection/fsa/item/fsa1997000980/PP/'
p11
aS'http://www.loc.gov/pictures/collection/fsa/item/fsa1997000981/PP/'
p12
aS'http://www.loc.gov/pictures/collection/fsa/item/fsa1997000982/PP/'
p13
aS'http://www.loc.gov/pictures/collection/fsa/item/fsa1997000983/PP/'
p14
aS'http://www.loc.gov/pictures/collection/fsa/item/fsa1997000984/PP/'
p15
aS'http://www.loc.gov/pictures/collection/fsa/item/fsa1997000985/PP/'
p16
aS'http://www.loc.gov/pictures/collection/fsa/item/fsa1997000986/PP/'
p17
aS'http://www.loc.gov/pictures/collection/fsa/item/fsa1997000987/PP/'
p18
aS'http://www.loc.gov/pictures/collection/fsa/item/fsa1997000988/PP/'
p19
aS'http://www.loc.gov/pictures/collection/fsa/item/fsa1997000989/PP/'
p20
aS'http://www.loc.gov/pictures/collection/fsa/item/fsa1997000990/PP/'
p21
aS'http://www.loc.gov/pictures/collection/fsa/item/fsa1997000991/PP/'
p22
aS'http://www.loc.gov/pictures/collection/fsa/item/fsa1997000992/PP/'
p23
aS'http://www.loc.gov/pictures/collection/fsa/item/fsa1997000993/PP/'
p24
aS'http://www.loc.gov/pictures/collection/fsa/item/fsa1997000994/PP/'
p25
aS'http://www.loc.gov/pictures/collection/fsa/item/fsa1997000995/PP/'
p26
aS'http://www.loc.gov/pictures/collection/fsa/item/fsa1997000996/PP/'
p27
aS'http://www.loc.gov/pictures/collection/fsa/item/fsa1997000997/PP/'
p28
aS'http://www.loc.gov/pictures/collection/fsa/item/fsa1997000998/PP/'
p29
aS'http://www.loc.gov/pictures/collection/fsa/item/fsa1997000999/PP/'
p30
aS'http://www.loc.gov/pictures/collection/fsa/item/fsa1997001000/PP/'
p31
aS'http://www.loc.gov/pictures/collection/fsa/item/fsa1997001001/PP/'
p32
aS'http://www.loc.gov/pictures/collection/fsa/item/fsa1997001002/PP/'
p33
aS'http://www.loc.gov/pictures/collection/fsa/item/fsa1997001003/PP/'
p34
aS'http://www.loc.gov/pictures/collection/fsa/item/fsa1997001004/PP/'
p35
aS'http://www.loc.gov/pictures/collection/fsa/item/fsa1997001005/PP/'
p36
aS'http://www.loc.gov/pictures/collection/fsa/item/fsa1997001006/PP/'
p37
aS'http://www.loc.gov/pictures/collection/fsa/item/fsa1997001007/PP/'
p38
aS'http://www.loc.gov/pictures/collection/fsa/item/fsa1997001008/PP/'
p39
aS'http://www.loc.gov/pictures/collection/fsa/item/fsa1997001009/PP/'
p40
a.